(dp0
F38.5
(dp1
S'rel_gravity'
p2
cnumpy.core.multiarray
_reconstruct
p3
(cnumpy
ndarray
p4
(I0
tp5
S'b'
p6
tp7
Rp8
(I1
(I0
tp9
cnumpy
dtype
p10
(S'f8'
p11
I0
I1
tp12
Rp13
(I3
S'<'
p14
NNNI-1
I-1
I0
tp15
bI00
S''
p16
tp17
bsS'rel_rot_stats'
p18
(dp19
S'std'
p20
I0
sS'min'
p21
I0
sS'max'
p22
I0
sS'rmse'
p23
I0
sS'median'
p24
I0
sS'num_samples'
p25
I0
sS'mean'
p26
I0
ssS'rel_trans_perc'
p27
g3
(g4
(I0
tp28
g6
tp29
Rp30
(I1
(I0
tp31
g13
I00
g16
tp32
bsS'rel_yaw'
p33
g3
(g4
(I0
tp34
g6
tp35
Rp36
(I1
(I0
tp37
g13
I00
g16
tp38
bsS'rel_yaw_stats'
p39
(dp40
g20
I0
sg21
I0
sg22
I0
sg23
I0
sg24
I0
sg25
I0
sg26
I0
ssS'rel_rot_deg_per_m_stats'
p41
(dp42
g20
I0
sg21
I0
sg22
I0
sg23
I0
sg24
I0
sg25
I0
sg26
I0
ssS'rel_trans'
p43
g3
(g4
(I0
tp44
g6
tp45
Rp46
(I1
(I0
tp47
g13
I00
g16
tp48
bsS'rel_rot'
p49
g3
(g4
(I0
tp50
g6
tp51
Rp52
(I1
(I0
tp53
g13
I00
g16
tp54
bsS'rel_trans_stats'
p55
(dp56
g20
I0
sg21
I0
sg22
I0
sg23
I0
sg24
I0
sg25
I0
sg26
I0
ssS'rel_gravity_stats'
p57
(dp58
g20
I0
sg21
I0
sg22
I0
sg23
I0
sg24
I0
sg25
I0
sg26
I0
ssS'rel_trans_perc_stats'
p59
(dp60
g20
I0
sg21
I0
sg22
I0
sg23
I0
sg24
I0
sg25
I0
sg26
I0
ssS'rel_rot_deg_per_m'
p61
g3
(g4
(I0
tp62
g6
tp63
Rp64
(I1
(I0
tp65
g13
I00
g16
tp66
bssF12.83
(dp67
g2
g3
(g4
(I0
tp68
g6
tp69
Rp70
(I1
(I0
tp71
g13
I00
g16
tp72
bsS'rel_rot_stats'
p73
(dp74
g20
I0
sg21
I0
sg22
I0
sg23
I0
sg24
I0
sg25
I0
sg26
I0
ssg27
g3
(g4
(I0
tp75
g6
tp76
Rp77
(I1
(I0
tp78
g13
I00
g16
tp79
bsg33
g3
(g4
(I0
tp80
g6
tp81
Rp82
(I1
(I0
tp83
g13
I00
g16
tp84
bsS'rel_yaw_stats'
p85
(dp86
g20
I0
sg21
I0
sg22
I0
sg23
I0
sg24
I0
sg25
I0
sg26
I0
ssS'rel_rot_deg_per_m_stats'
p87
(dp88
g20
I0
sg21
I0
sg22
I0
sg23
I0
sg24
I0
sg25
I0
sg26
I0
ssg43
g3
(g4
(I0
tp89
g6
tp90
Rp91
(I1
(I0
tp92
g13
I00
g16
tp93
bsg49
g3
(g4
(I0
tp94
g6
tp95
Rp96
(I1
(I0
tp97
g13
I00
g16
tp98
bsS'rel_trans_stats'
p99
(dp100
g20
I0
sg21
I0
sg22
I0
sg23
I0
sg24
I0
sg25
I0
sg26
I0
ssS'rel_gravity_stats'
p101
(dp102
g20
I0
sg21
I0
sg22
I0
sg23
I0
sg24
I0
sg25
I0
sg26
I0
ssS'rel_trans_perc_stats'
p103
(dp104
g20
I0
sg21
I0
sg22
I0
sg23
I0
sg24
I0
sg25
I0
sg26
I0
ssg61
g3
(g4
(I0
tp105
g6
tp106
Rp107
(I1
(I0
tp108
g13
I00
g16
tp109
bssF51.34
(dp110
g2
g3
(g4
(I0
tp111
g6
tp112
Rp113
(I1
(I0
tp114
g13
I00
g16
tp115
bsS'rel_rot_stats'
p116
(dp117
g20
I0
sg21
I0
sg22
I0
sg23
I0
sg24
I0
sg25
I0
sg26
I0
ssg27
g3
(g4
(I0
tp118
g6
tp119
Rp120
(I1
(I0
tp121
g13
I00
g16
tp122
bsg33
g3
(g4
(I0
tp123
g6
tp124
Rp125
(I1
(I0
tp126
g13
I00
g16
tp127
bsS'rel_yaw_stats'
p128
(dp129
g20
I0
sg21
I0
sg22
I0
sg23
I0
sg24
I0
sg25
I0
sg26
I0
ssS'rel_rot_deg_per_m_stats'
p130
(dp131
g20
I0
sg21
I0
sg22
I0
sg23
I0
sg24
I0
sg25
I0
sg26
I0
ssg43
g3
(g4
(I0
tp132
g6
tp133
Rp134
(I1
(I0
tp135
g13
I00
g16
tp136
bsg49
g3
(g4
(I0
tp137
g6
tp138
Rp139
(I1
(I0
tp140
g13
I00
g16
tp141
bsS'rel_trans_stats'
p142
(dp143
g20
I0
sg21
I0
sg22
I0
sg23
I0
sg24
I0
sg25
I0
sg26
I0
ssS'rel_gravity_stats'
p144
(dp145
g20
I0
sg21
I0
sg22
I0
sg23
I0
sg24
I0
sg25
I0
sg26
I0
ssS'rel_trans_perc_stats'
p146
(dp147
g20
I0
sg21
I0
sg22
I0
sg23
I0
sg24
I0
sg25
I0
sg26
I0
ssg61
g3
(g4
(I0
tp148
g6
tp149
Rp150
(I1
(I0
tp151
g13
I00
g16
tp152
bssF25.67
(dp153
g2
g3
(g4
(I0
tp154
g6
tp155
Rp156
(I1
(I0
tp157
g13
I00
g16
tp158
bsS'rel_rot_stats'
p159
(dp160
g20
I0
sg21
I0
sg22
I0
sg23
I0
sg24
I0
sg25
I0
sg26
I0
ssg27
g3
(g4
(I0
tp161
g6
tp162
Rp163
(I1
(I0
tp164
g13
I00
g16
tp165
bsg33
g3
(g4
(I0
tp166
g6
tp167
Rp168
(I1
(I0
tp169
g13
I00
g16
tp170
bsS'rel_yaw_stats'
p171
(dp172
g20
I0
sg21
I0
sg22
I0
sg23
I0
sg24
I0
sg25
I0
sg26
I0
ssS'rel_rot_deg_per_m_stats'
p173
(dp174
g20
I0
sg21
I0
sg22
I0
sg23
I0
sg24
I0
sg25
I0
sg26
I0
ssg43
g3
(g4
(I0
tp175
g6
tp176
Rp177
(I1
(I0
tp178
g13
I00
g16
tp179
bsg49
g3
(g4
(I0
tp180
g6
tp181
Rp182
(I1
(I0
tp183
g13
I00
g16
tp184
bsS'rel_trans_stats'
p185
(dp186
g20
I0
sg21
I0
sg22
I0
sg23
I0
sg24
I0
sg25
I0
sg26
I0
ssS'rel_gravity_stats'
p187
(dp188
g20
I0
sg21
I0
sg22
I0
sg23
I0
sg24
I0
sg25
I0
sg26
I0
ssS'rel_trans_perc_stats'
p189
(dp190
g20
I0
sg21
I0
sg22
I0
sg23
I0
sg24
I0
sg25
I0
sg26
I0
ssg61
g3
(g4
(I0
tp191
g6
tp192
Rp193
(I1
(I0
tp194
g13
I00
g16
tp195
bssF64.17
(dp196
g2
g3
(g4
(I0
tp197
g6
tp198
Rp199
(I1
(I0
tp200
g13
I00
g16
tp201
bsS'rel_rot_stats'
p202
(dp203
g20
I0
sg21
I0
sg22
I0
sg23
I0
sg24
I0
sg25
I0
sg26
I0
ssg27
g3
(g4
(I0
tp204
g6
tp205
Rp206
(I1
(I0
tp207
g13
I00
g16
tp208
bsg33
g3
(g4
(I0
tp209
g6
tp210
Rp211
(I1
(I0
tp212
g13
I00
g16
tp213
bsS'rel_yaw_stats'
p214
(dp215
g20
I0
sg21
I0
sg22
I0
sg23
I0
sg24
I0
sg25
I0
sg26
I0
ssS'rel_rot_deg_per_m_stats'
p216
(dp217
g20
I0
sg21
I0
sg22
I0
sg23
I0
sg24
I0
sg25
I0
sg26
I0
ssg43
g3
(g4
(I0
tp218
g6
tp219
Rp220
(I1
(I0
tp221
g13
I00
g16
tp222
bsg49
g3
(g4
(I0
tp223
g6
tp224
Rp225
(I1
(I0
tp226
g13
I00
g16
tp227
bsS'rel_trans_stats'
p228
(dp229
g20
I0
sg21
I0
sg22
I0
sg23
I0
sg24
I0
sg25
I0
sg26
I0
ssS'rel_gravity_stats'
p230
(dp231
g20
I0
sg21
I0
sg22
I0
sg23
I0
sg24
I0
sg25
I0
sg26
I0
ssS'rel_trans_perc_stats'
p232
(dp233
g20
I0
sg21
I0
sg22
I0
sg23
I0
sg24
I0
sg25
I0
sg26
I0
ssg61
g3
(g4
(I0
tp234
g6
tp235
Rp236
(I1
(I0
tp237
g13
I00
g16
tp238
bss.