(dp0
S'rmse_rot'
p1
(lp2
F168.17620645346304
asS'rmse_trans'
p3
(lp4
F0.18891354711894398
asS'rmse_scale'
p5
(lp6
Finf
asS'rmse_rot_stats'
p7
(dp8
S'std'
p9
F0.0
sS'min'
p10
F168.17620645346304
sS'max'
p11
F168.17620645346304
sS'rmse'
p12
F168.17620645346304
sS'median'
p13
F168.17620645346304
sS'num_samples'
p14
I1
sS'mean'
p15
F168.17620645346304
ssS'rmse_scale_stats'
p16
(dp17
g9
Fnan
sg10
Finf
sg11
Finf
sg12
Finf
sg13
Finf
sg14
I1
sg15
Finf
ssS'rmse_trans_stats'
p18
(dp19
g9
F0.0
sg10
F0.18891354711894398
sg11
F0.18891354711894398
sg12
F0.18891354711894398
sg13
F0.18891354711894398
sg14
I1
sg15
F0.18891354711894398
ss.