(dp0
S'rmse_rot'
p1
(lp2
F117.61799127032508
asS'rmse_trans'
p3
(lp4
F14.914682324935995
asS'rmse_scale'
p5
(lp6
Finf
asS'rmse_rot_stats'
p7
(dp8
S'std'
p9
F0.0
sS'min'
p10
F117.61799127032508
sS'max'
p11
F117.61799127032508
sS'rmse'
p12
F117.61799127032508
sS'median'
p13
F117.61799127032508
sS'num_samples'
p14
I1
sS'mean'
p15
F117.61799127032508
ssS'rmse_scale_stats'
p16
(dp17
g9
Fnan
sg10
Finf
sg11
Finf
sg12
Finf
sg13
Finf
sg14
I1
sg15
Finf
ssS'rmse_trans_stats'
p18
(dp19
g9
F0.0
sg10
F14.914682324935995
sg11
F14.914682324935995
sg12
F14.914682324935995
sg13
F14.914682324935995
sg14
I1
sg15
F14.914682324935995
ss.